target datalayout = "e-m:e-p270:32:32-p271:32:32-p272:64:64-i64:64-i128:128-f80:128-n8:16:32:64-S128"
target triple = "x86_64-pc-linux-gnu"

%"struct.Luau::CodeGen::IrOp" = type { i32 }
%"struct.Luau::CodeGen::FallbackStreamScope" = type <{ ptr, %"struct.Luau::CodeGen::IrOp", [4 x i8] }>

; Function Attrs: mustprogress uwtable
define linkonce_odr dso_local void @_ZN4Luau7CodeGen19FallbackStreamScopeC2ERNS0_9IrBuilderENS0_4IrOpES4_(ptr noundef nonnull align 8 dereferenceable(12) %0, ptr noundef nonnull align 8 dereferenceable(752) %1, i32 %2, i32 %3) unnamed_addr #0 comdat align 2 {
  %5 = alloca %"struct.Luau::CodeGen::IrOp", align 4
  %6 = alloca %"struct.Luau::CodeGen::IrOp", align 4
  %7 = alloca ptr, align 8
  %8 = alloca ptr, align 8
  %9 = alloca %"struct.Luau::CodeGen::IrOp", align 4
  %10 = alloca %"struct.Luau::CodeGen::IrOp", align 4
  %11 = alloca %"struct.Luau::CodeGen::IrOp", align 4
  %12 = getelementptr inbounds nuw %"struct.Luau::CodeGen::IrOp", ptr %5, i32 0, i32 0
  store i32 %2, ptr %12, align 4
  %13 = getelementptr inbounds nuw %"struct.Luau::CodeGen::IrOp", ptr %6, i32 0, i32 0
  store i32 %3, ptr %13, align 4
  store ptr %0, ptr %7, align 8, !tbaa !130
  store ptr %1, ptr %8, align 8, !tbaa !4
  %14 = load ptr, ptr %7, align 8
  %15 = getelementptr inbounds nuw %"struct.Luau::CodeGen::FallbackStreamScope", ptr %14, i32 0, i32 0
  %16 = load ptr, ptr %8, align 8, !tbaa !4
  store ptr %16, ptr %15, align 8, !tbaa !4
  %17 = getelementptr inbounds nuw %"struct.Luau::CodeGen::FallbackStreamScope", ptr %14, i32 0, i32 1
  call void @llvm.memcpy.p0.p0.i64(ptr align 8 %17, ptr align 4 %6, i64 4, i1 false), !tbaa.struct !112
  %18 = load ptr, ptr %8, align 8, !tbaa !4
  call void @llvm.memcpy.p0.p0.i64(ptr align 4 %9, ptr align 4 %6, i64 4, i1 false), !tbaa.struct !112
  %19 = getelementptr inbounds nuw %"struct.Luau::CodeGen::IrOp", ptr %9, i32 0, i32 0
  %20 = load i32, ptr %19, align 4
  %21 = call i32 @_ZN4Luau7CodeGen9IrBuilder4instENS0_5IrCmdENS0_4IrOpE(ptr noundef nonnull align 8 dereferenceable(752) %18, i8 noundef zeroext 46, i32 %20)
  %22 = getelementptr inbounds nuw %"struct.Luau::CodeGen::IrOp", ptr %10, i32 0, i32 0
  store i32 %21, ptr %22, align 4
  %23 = load ptr, ptr %8, align 8, !tbaa !4
  call void @llvm.memcpy.p0.p0.i64(ptr align 4 %11, ptr align 4 %5, i64 4, i1 false), !tbaa.struct !112
  %24 = getelementptr inbounds nuw %"struct.Luau::CodeGen::IrOp", ptr %11, i32 0, i32 0
  %25 = load i32, ptr %24, align 4
  call void @_ZN4Luau7CodeGen9IrBuilder10beginBlockENS0_4IrOpE(ptr noundef nonnull align 8 dereferenceable(752) %23, i32 %25)
  ret void
}

; Function Attrs: mustprogress uwtable
define dso_local void @_ZN4Luau7CodeGen22translateInstSetGlobalERNS0_9IrBuilderEPKji(ptr noundef nonnull align 8 dereferenceable(752) %0, ptr noundef %1, i32 noundef %2) #0 personality ptr @__gxx_personality_v0 {
  %4 = alloca ptr, align 8
  %5 = alloca ptr, align 8
  %6 = alloca i32, align 4
  %7 = alloca i32, align 4
  %8 = alloca i32, align 4
  %9 = alloca %"struct.Luau::CodeGen::IrOp", align 4
  %10 = alloca %"struct.Luau::CodeGen::IrOp", align 4
  %11 = alloca %"struct.Luau::CodeGen::IrOp", align 4
  %12 = alloca %"struct.Luau::CodeGen::IrOp", align 4
  %13 = alloca %"struct.Luau::CodeGen::IrOp", align 4
  %14 = alloca %"struct.Luau::CodeGen::IrOp", align 4
  %15 = alloca %"struct.Luau::CodeGen::IrOp", align 4
  %16 = alloca %"struct.Luau::CodeGen::IrOp", align 4
  %17 = alloca %"struct.Luau::CodeGen::IrOp", align 4
  %18 = alloca %"struct.Luau::CodeGen::IrOp", align 4
  %19 = alloca %"struct.Luau::CodeGen::IrOp", align 4
  %20 = alloca %"struct.Luau::CodeGen::IrOp", align 4
  %21 = alloca %"struct.Luau::CodeGen::IrOp", align 4
  %22 = alloca %"struct.Luau::CodeGen::IrOp", align 4
  %23 = alloca %"struct.Luau::CodeGen::IrOp", align 4
  %24 = alloca %"struct.Luau::CodeGen::IrOp", align 4
  %25 = alloca %"struct.Luau::CodeGen::IrOp", align 4
  %26 = alloca %"struct.Luau::CodeGen::IrOp", align 4
  %27 = alloca %"struct.Luau::CodeGen::IrOp", align 4
  %28 = alloca %"struct.Luau::CodeGen::IrOp", align 4
  %29 = alloca %"struct.Luau::CodeGen::IrOp", align 4
  %30 = alloca %"struct.Luau::CodeGen::IrOp", align 4
  %31 = alloca %"struct.Luau::CodeGen::IrOp", align 4
  %32 = alloca %"struct.Luau::CodeGen::IrOp", align 4
  %33 = alloca %"struct.Luau::CodeGen::FallbackStreamScope", align 8
  %34 = alloca %"struct.Luau::CodeGen::IrOp", align 4
  %35 = alloca %"struct.Luau::CodeGen::IrOp", align 4
  %36 = alloca %"struct.Luau::CodeGen::IrOp", align 4
  %37 = alloca ptr, align 8
  %38 = alloca i32, align 4
  %39 = alloca %"struct.Luau::CodeGen::IrOp", align 4
  %40 = alloca %"struct.Luau::CodeGen::IrOp", align 4
  %41 = alloca %"struct.Luau::CodeGen::IrOp", align 4
  %42 = alloca %"struct.Luau::CodeGen::IrOp", align 4
  %43 = alloca %"struct.Luau::CodeGen::IrOp", align 4
  store ptr %0, ptr %4, align 8, !tbaa !4
  store ptr %1, ptr %5, align 8, !tbaa !9
  store i32 %2, ptr %6, align 4, !tbaa !11
  call void @llvm.lifetime.start.p0(i64 4, ptr %7) #13
  %44 = load ptr, ptr %5, align 8, !tbaa !9
  %45 = load i32, ptr %44, align 4, !tbaa !11
  %46 = lshr i32 %45, 8
  %47 = and i32 %46, 255
  store i32 %47, ptr %7, align 4, !tbaa !11
  call void @llvm.lifetime.start.p0(i64 4, ptr %8) #13
  %48 = load ptr, ptr %5, align 8, !tbaa !9
  %49 = getelementptr inbounds i32, ptr %48, i64 1
  %50 = load i32, ptr %49, align 4, !tbaa !11
  store i32 %50, ptr %8, align 4, !tbaa !11
  call void @llvm.lifetime.start.p0(i64 4, ptr %9) #13
  %51 = load ptr, ptr %4, align 8, !tbaa !4
  %52 = call i32 @_ZN4Luau7CodeGen9IrBuilder5blockENS0_11IrBlockKindE(ptr noundef nonnull align 8 dereferenceable(752) %51, i8 noundef zeroext 1)
  %53 = getelementptr inbounds nuw %"struct.Luau::CodeGen::IrOp", ptr %9, i32 0, i32 0
  store i32 %52, ptr %53, align 4
  call void @llvm.lifetime.start.p0(i64 4, ptr %10) #13
  %54 = load ptr, ptr %4, align 8, !tbaa !4
  %55 = call i32 @_ZN4Luau7CodeGen9IrBuilder4instENS0_5IrCmdE(ptr noundef nonnull align 8 dereferenceable(752) %54, i8 noundef zeroext 7)
  %56 = getelementptr inbounds nuw %"struct.Luau::CodeGen::IrOp", ptr %10, i32 0, i32 0
  store i32 %55, ptr %56, align 4
  call void @llvm.lifetime.start.p0(i64 4, ptr %11) #13
  %57 = load ptr, ptr %4, align 8, !tbaa !4
  call void @llvm.memcpy.p0.p0.i64(ptr align 4 %12, ptr align 4 %10, i64 4, i1 false), !tbaa.struct !112
  %58 = load ptr, ptr %4, align 8, !tbaa !4
  %59 = load i32, ptr %6, align 4, !tbaa !11
  %60 = call i32 @_ZN4Luau7CodeGen9IrBuilder9constUintEj(ptr noundef nonnull align 8 dereferenceable(752) %58, i32 noundef %59)
  %61 = getelementptr inbounds nuw %"struct.Luau::CodeGen::IrOp", ptr %13, i32 0, i32 0
  store i32 %60, ptr %61, align 4
  %62 = load ptr, ptr %4, align 8, !tbaa !4
  %63 = load i32, ptr %8, align 4, !tbaa !11
  %64 = call i32 @_ZN4Luau7CodeGen9IrBuilder7vmConstEj(ptr noundef nonnull align 8 dereferenceable(752) %62, i32 noundef %63)
  %65 = getelementptr inbounds nuw %"struct.Luau::CodeGen::IrOp", ptr %14, i32 0, i32 0
  store i32 %64, ptr %65, align 4
  %66 = getelementptr inbounds nuw %"struct.Luau::CodeGen::IrOp", ptr %12, i32 0, i32 0
  %67 = load i32, ptr %66, align 4
  %68 = getelementptr inbounds nuw %"struct.Luau::CodeGen::IrOp", ptr %13, i32 0, i32 0
  %69 = load i32, ptr %68, align 4
  %70 = getelementptr inbounds nuw %"struct.Luau::CodeGen::IrOp", ptr %14, i32 0, i32 0
  %71 = load i32, ptr %70, align 4
  %72 = call i32 @_ZN4Luau7CodeGen9IrBuilder4instENS0_5IrCmdENS0_4IrOpES3_S3_(ptr noundef nonnull align 8 dereferenceable(752) %57, i8 noundef zeroext 9, i32 %67, i32 %69, i32 %71)
  %73 = getelementptr inbounds nuw %"struct.Luau::CodeGen::IrOp", ptr %11, i32 0, i32 0
  store i32 %72, ptr %73, align 4
  %74 = load ptr, ptr %4, align 8, !tbaa !4
  call void @llvm.memcpy.p0.p0.i64(ptr align 4 %15, ptr align 4 %11, i64 4, i1 false), !tbaa.struct !112
  %75 = load ptr, ptr %4, align 8, !tbaa !4
  %76 = load i32, ptr %8, align 4, !tbaa !11
  %77 = call i32 @_ZN4Luau7CodeGen9IrBuilder7vmConstEj(ptr noundef nonnull align 8 dereferenceable(752) %75, i32 noundef %76)
  %78 = getelementptr inbounds nuw %"struct.Luau::CodeGen::IrOp", ptr %16, i32 0, i32 0
  store i32 %77, ptr %78, align 4
  call void @llvm.memcpy.p0.p0.i64(ptr align 4 %17, ptr align 4 %9, i64 4, i1 false), !tbaa.struct !112
  %79 = getelementptr inbounds nuw %"struct.Luau::CodeGen::IrOp", ptr %15, i32 0, i32 0
  %80 = load i32, ptr %79, align 4
  %81 = getelementptr inbounds nuw %"struct.Luau::CodeGen::IrOp", ptr %16, i32 0, i32 0
  %82 = load i32, ptr %81, align 4
  %83 = getelementptr inbounds nuw %"struct.Luau::CodeGen::IrOp", ptr %17, i32 0, i32 0
  %84 = load i32, ptr %83, align 4
  %85 = call i32 @_ZN4Luau7CodeGen9IrBuilder4instENS0_5IrCmdENS0_4IrOpES3_S3_(ptr noundef nonnull align 8 dereferenceable(752) %74, i8 noundef zeroext 88, i32 %80, i32 %82, i32 %84)
  %86 = getelementptr inbounds nuw %"struct.Luau::CodeGen::IrOp", ptr %18, i32 0, i32 0
  store i32 %85, ptr %86, align 4
  %87 = load ptr, ptr %4, align 8, !tbaa !4
  call void @llvm.memcpy.p0.p0.i64(ptr align 4 %19, ptr align 4 %10, i64 4, i1 false), !tbaa.struct !112
  call void @llvm.memcpy.p0.p0.i64(ptr align 4 %20, ptr align 4 %9, i64 4, i1 false), !tbaa.struct !112
  %88 = getelementptr inbounds nuw %"struct.Luau::CodeGen::IrOp", ptr %19, i32 0, i32 0
  %89 = load i32, ptr %88, align 4
  %90 = getelementptr inbounds nuw %"struct.Luau::CodeGen::IrOp", ptr %20, i32 0, i32 0
  %91 = load i32, ptr %90, align 4
  %92 = call i32 @_ZN4Luau7CodeGen9IrBuilder4instENS0_5IrCmdENS0_4IrOpES3_(ptr noundef nonnull align 8 dereferenceable(752) %87, i8 noundef zeroext 84, i32 %89, i32 %91)
  %93 = getelementptr inbounds nuw %"struct.Luau::CodeGen::IrOp", ptr %21, i32 0, i32 0
  store i32 %92, ptr %93, align 4
  call void @llvm.lifetime.start.p0(i64 4, ptr %22) #13
  %94 = load ptr, ptr %4, align 8, !tbaa !4
  %95 = load ptr, ptr %4, align 8, !tbaa !4
  %96 = load i32, ptr %7, align 4, !tbaa !11
  %97 = trunc i32 %96 to i8
  %98 = call i32 @_ZN4Luau7CodeGen9IrBuilder5vmRegEh(ptr noundef nonnull align 8 dereferenceable(752) %95, i8 noundef zeroext %97)
  %99 = getelementptr inbounds nuw %"struct.Luau::CodeGen::IrOp", ptr %23, i32 0, i32 0
  store i32 %98, ptr %99, align 4
  %100 = getelementptr inbounds nuw %"struct.Luau::CodeGen::IrOp", ptr %23, i32 0, i32 0
  %101 = load i32, ptr %100, align 4
  %102 = call i32 @_ZN4Luau7CodeGen9IrBuilder4instENS0_5IrCmdENS0_4IrOpE(ptr noundef nonnull align 8 dereferenceable(752) %94, i8 noundef zeroext 6, i32 %101)
  %103 = getelementptr inbounds nuw %"struct.Luau::CodeGen::IrOp", ptr %22, i32 0, i32 0
  store i32 %102, ptr %103, align 4
  %104 = load ptr, ptr %4, align 8, !tbaa !4
  call void @llvm.memcpy.p0.p0.i64(ptr align 4 %24, ptr align 4 %11, i64 4, i1 false), !tbaa.struct !112
  call void @llvm.memcpy.p0.p0.i64(ptr align 4 %25, ptr align 4 %22, i64 4, i1 false), !tbaa.struct !112
  %105 = load ptr, ptr %4, align 8, !tbaa !4
  %106 = call i32 @_ZN4Luau7CodeGen9IrBuilder8constIntEi(ptr noundef nonnull align 8 dereferenceable(752) %105, i32 noundef 0)
  %107 = getelementptr inbounds nuw %"struct.Luau::CodeGen::IrOp", ptr %26, i32 0, i32 0
  store i32 %106, ptr %107, align 4
  %108 = getelementptr inbounds nuw %"struct.Luau::CodeGen::IrOp", ptr %24, i32 0, i32 0
  %109 = load i32, ptr %108, align 4
  %110 = getelementptr inbounds nuw %"struct.Luau::CodeGen::IrOp", ptr %25, i32 0, i32 0
  %111 = load i32, ptr %110, align 4
  %112 = getelementptr inbounds nuw %"struct.Luau::CodeGen::IrOp", ptr %26, i32 0, i32 0
  %113 = load i32, ptr %112, align 4
  %114 = call i32 @_ZN4Luau7CodeGen9IrBuilder4instENS0_5IrCmdENS0_4IrOpES3_S3_(ptr noundef nonnull align 8 dereferenceable(752) %104, i8 noundef zeroext 18, i32 %109, i32 %111, i32 %113)
  %115 = getelementptr inbounds nuw %"struct.Luau::CodeGen::IrOp", ptr %27, i32 0, i32 0
  store i32 %114, ptr %115, align 4
  %116 = load ptr, ptr %4, align 8, !tbaa !4
  call void @llvm.memcpy.p0.p0.i64(ptr align 4 %28, ptr align 4 %10, i64 4, i1 false), !tbaa.struct !112
  %117 = load ptr, ptr %4, align 8, !tbaa !4
  %118 = load i32, ptr %7, align 4, !tbaa !11
  %119 = trunc i32 %118 to i8
  %120 = call i32 @_ZN4Luau7CodeGen9IrBuilder5vmRegEh(ptr noundef nonnull align 8 dereferenceable(752) %117, i8 noundef zeroext %119)
  %121 = getelementptr inbounds nuw %"struct.Luau::CodeGen::IrOp", ptr %29, i32 0, i32 0
  store i32 %120, ptr %121, align 4
  %122 = load ptr, ptr %4, align 8, !tbaa !4
  %123 = call i32 @_ZN4Luau7CodeGen9IrBuilder5undefEv(ptr noundef nonnull align 8 dereferenceable(752) %122)
  %124 = getelementptr inbounds nuw %"struct.Luau::CodeGen::IrOp", ptr %30, i32 0, i32 0
  store i32 %123, ptr %124, align 4
  %125 = getelementptr inbounds nuw %"struct.Luau::CodeGen::IrOp", ptr %28, i32 0, i32 0
  %126 = load i32, ptr %125, align 4
  %127 = getelementptr inbounds nuw %"struct.Luau::CodeGen::IrOp", ptr %29, i32 0, i32 0
  %128 = load i32, ptr %127, align 4
  %129 = getelementptr inbounds nuw %"struct.Luau::CodeGen::IrOp", ptr %30, i32 0, i32 0
  %130 = load i32, ptr %129, align 4
  %131 = call i32 @_ZN4Luau7CodeGen9IrBuilder4instENS0_5IrCmdENS0_4IrOpES3_S3_(ptr noundef nonnull align 8 dereferenceable(752) %116, i8 noundef zeroext 97, i32 %126, i32 %128, i32 %130)
  %132 = getelementptr inbounds nuw %"struct.Luau::CodeGen::IrOp", ptr %31, i32 0, i32 0
  store i32 %131, ptr %132, align 4
  call void @llvm.lifetime.start.p0(i64 4, ptr %32) #13
  %133 = load ptr, ptr %4, align 8, !tbaa !4
  %134 = load i32, ptr %6, align 4, !tbaa !11
  %135 = add nsw i32 %134, 2
  %136 = call i32 @_ZN4Luau7CodeGen9IrBuilder11blockAtInstEj(ptr noundef nonnull align 8 dereferenceable(752) %133, i32 noundef %135)
  %137 = getelementptr inbounds nuw %"struct.Luau::CodeGen::IrOp", ptr %32, i32 0, i32 0
  store i32 %136, ptr %137, align 4
  call void @llvm.lifetime.start.p0(i64 16, ptr %33) #13
  %138 = load ptr, ptr %4, align 8, !tbaa !4
  call void @llvm.memcpy.p0.p0.i64(ptr align 4 %34, ptr align 4 %9, i64 4, i1 false), !tbaa.struct !112
  call void @llvm.memcpy.p0.p0.i64(ptr align 4 %35, ptr align 4 %32, i64 4, i1 false), !tbaa.struct !112
  %139 = getelementptr inbounds nuw %"struct.Luau::CodeGen::IrOp", ptr %34, i32 0, i32 0
  %140 = load i32, ptr %139, align 4
  %141 = getelementptr inbounds nuw %"struct.Luau::CodeGen::IrOp", ptr %35, i32 0, i32 0
  %142 = load i32, ptr %141, align 4
  call void @_ZN4Luau7CodeGen19FallbackStreamScopeC2ERNS0_9IrBuilderENS0_4IrOpES4_(ptr noundef nonnull align 8 dereferenceable(12) %33, ptr noundef nonnull align 8 dereferenceable(752) %138, i32 %140, i32 %142)
  %143 = load ptr, ptr %4, align 8, !tbaa !4
  %144 = load ptr, ptr %4, align 8, !tbaa !4
  %145 = load i32, ptr %6, align 4, !tbaa !11
  %146 = invoke i32 @_ZN4Luau7CodeGen9IrBuilder9constUintEj(ptr noundef nonnull align 8 dereferenceable(752) %144, i32 noundef %145)
          to label %147 unwind label %175

147:                                              ; preds = %3
  %148 = getelementptr inbounds nuw %"struct.Luau::CodeGen::IrOp", ptr %36, i32 0, i32 0
  store i32 %146, ptr %148, align 4
  %149 = load ptr, ptr %4, align 8, !tbaa !4
  %150 = load i32, ptr %7, align 4, !tbaa !11
  %151 = trunc i32 %150 to i8
  %152 = invoke i32 @_ZN4Luau7CodeGen9IrBuilder5vmRegEh(ptr noundef nonnull align 8 dereferenceable(752) %149, i8 noundef zeroext %151)
          to label %153 unwind label %175

153:                                              ; preds = %147
  %154 = getelementptr inbounds nuw %"struct.Luau::CodeGen::IrOp", ptr %39, i32 0, i32 0
  store i32 %152, ptr %154, align 4
  %155 = load ptr, ptr %4, align 8, !tbaa !4
  %156 = load i32, ptr %8, align 4, !tbaa !11
  %157 = invoke i32 @_ZN4Luau7CodeGen9IrBuilder7vmConstEj(ptr noundef nonnull align 8 dereferenceable(752) %155, i32 noundef %156)
          to label %158 unwind label %175

158:                                              ; preds = %153
  %159 = getelementptr inbounds nuw %"struct.Luau::CodeGen::IrOp", ptr %40, i32 0, i32 0
  store i32 %157, ptr %159, align 4
  %160 = getelementptr inbounds nuw %"struct.Luau::CodeGen::IrOp", ptr %36, i32 0, i32 0
  %161 = load i32, ptr %160, align 4
  %162 = getelementptr inbounds nuw %"struct.Luau::CodeGen::IrOp", ptr %39, i32 0, i32 0
  %163 = load i32, ptr %162, align 4
  %164 = getelementptr inbounds nuw %"struct.Luau::CodeGen::IrOp", ptr %40, i32 0, i32 0
  %165 = load i32, ptr %164, align 4
  %166 = invoke i32 @_ZN4Luau7CodeGen9IrBuilder4instENS0_5IrCmdENS0_4IrOpES3_S3_(ptr noundef nonnull align 8 dereferenceable(752) %143, i8 noundef zeroext 109, i32 %161, i32 %163, i32 %165)
          to label %167 unwind label %175

167:                                              ; preds = %158
  %168 = getelementptr inbounds nuw %"struct.Luau::CodeGen::IrOp", ptr %41, i32 0, i32 0
  store i32 %166, ptr %168, align 4
  %169 = load ptr, ptr %4, align 8, !tbaa !4
  call void @llvm.memcpy.p0.p0.i64(ptr align 4 %42, ptr align 4 %32, i64 4, i1 false), !tbaa.struct !112
  %170 = getelementptr inbounds nuw %"struct.Luau::CodeGen::IrOp", ptr %42, i32 0, i32 0
  %171 = load i32, ptr %170, align 4
  %172 = invoke i32 @_ZN4Luau7CodeGen9IrBuilder4instENS0_5IrCmdENS0_4IrOpE(ptr noundef nonnull align 8 dereferenceable(752) %169, i8 noundef zeroext 46, i32 %171)
          to label %173 unwind label %175

173:                                              ; preds = %167
  %174 = getelementptr inbounds nuw %"struct.Luau::CodeGen::IrOp", ptr %43, i32 0, i32 0
  store i32 %172, ptr %174, align 4
  call void @_ZN4Luau7CodeGen19FallbackStreamScopeD2Ev(ptr noundef nonnull align 8 dereferenceable(12) %33) #13
  call void @llvm.lifetime.end.p0(i64 16, ptr %33) #13
  call void @llvm.lifetime.end.p0(i64 4, ptr %32) #13
  call void @llvm.lifetime.end.p0(i64 4, ptr %22) #13
  call void @llvm.lifetime.end.p0(i64 4, ptr %11) #13
  call void @llvm.lifetime.end.p0(i64 4, ptr %10) #13
  call void @llvm.lifetime.end.p0(i64 4, ptr %9) #13
  call void @llvm.lifetime.end.p0(i64 4, ptr %8) #13
  call void @llvm.lifetime.end.p0(i64 4, ptr %7) #13
  ret void

175:                                              ; preds = %167, %158, %153, %147, %3
  %176 = landingpad { ptr, i32 }
          cleanup
  %177 = extractvalue { ptr, i32 } %176, 0
  store ptr %177, ptr %37, align 8
  %178 = extractvalue { ptr, i32 } %176, 1
  store i32 %178, ptr %38, align 4
  call void @_ZN4Luau7CodeGen19FallbackStreamScopeD2Ev(ptr noundef nonnull align 8 dereferenceable(12) %33) #13
  call void @llvm.lifetime.end.p0(i64 16, ptr %33) #13
  call void @llvm.lifetime.end.p0(i64 4, ptr %32) #13
  call void @llvm.lifetime.end.p0(i64 4, ptr %22) #13
  call void @llvm.lifetime.end.p0(i64 4, ptr %11) #13
  call void @llvm.lifetime.end.p0(i64 4, ptr %10) #13
  call void @llvm.lifetime.end.p0(i64 4, ptr %9) #13
  call void @llvm.lifetime.end.p0(i64 4, ptr %8) #13
  call void @llvm.lifetime.end.p0(i64 4, ptr %7) #13
  br label %179

179:                                              ; preds = %175
  %180 = load ptr, ptr %37, align 8
  %181 = load i32, ptr %38, align 4
  %182 = insertvalue { ptr, i32 } poison, ptr %180, 0
  %183 = insertvalue { ptr, i32 } %182, i32 %181, 1
  resume { ptr, i32 } %183
}